; Function Attrs: mustprogress uwtable
define noundef signext i8 @_ZN6icu_7518UnicodeSetIterator9nextRangeEv(ptr nocapture noundef nonnull align 8 dereferenceable(64) %this) local_unnamed_addr #1 align 2 {
entry:
  %string = getelementptr inbounds i8, ptr %this, i64 16
  store ptr null, ptr %string, align 8
  %nextElement = getelementptr inbounds i8, ptr %this, i64 44
  %0 = load i32, ptr %nextElement, align 4
  %endElement = getelementptr inbounds i8, ptr %this, i64 40
  %1 = load i32, ptr %endElement, align 8
  %cmp.not = icmp sgt i32 %0, %1
  br i1 %cmp.not, label %if.end, label %if.then

if.then:                                          ; preds = %entry
  %codepointEnd = getelementptr inbounds i8, ptr %this, i64 12
  store i32 %1, ptr %codepointEnd, align 4
  %codepoint = getelementptr inbounds i8, ptr %this, i64 8
  store i32 %0, ptr %codepoint, align 8
  %add = add nsw i32 %1, 1
  store i32 %add, ptr %nextElement, align 4
  br label %return

if.end:                                           ; preds = %entry
  %range = getelementptr inbounds i8, ptr %this, i64 36
  %2 = load i32, ptr %range, align 4
  %endRange = getelementptr inbounds i8, ptr %this, i64 32
  %3 = load i32, ptr %endRange, align 8
  %cmp6 = icmp slt i32 %2, %3
  br i1 %cmp6, label %if.then7, label %if.end16

if.then7:                                         ; preds = %if.end
  %inc = add nsw i32 %2, 1
  store i32 %inc, ptr %range, align 4
  %set.i = getelementptr inbounds i8, ptr %this, i64 24
  %4 = load ptr, ptr %set.i, align 8
  %call.i = tail call noundef i32 @_ZNK6icu_7510UnicodeSet13getRangeStartEi(ptr noundef nonnull align 8 dereferenceable(200) %4, i32 noundef %inc)
  store i32 %call.i, ptr %nextElement, align 4
  %5 = load ptr, ptr %set.i, align 8
  %call3.i = tail call noundef i32 @_ZNK6icu_7510UnicodeSet11getRangeEndEi(ptr noundef nonnull align 8 dereferenceable(200) %5, i32 noundef %inc)
  store i32 %call3.i, ptr %endElement, align 8
  %codepointEnd10 = getelementptr inbounds i8, ptr %this, i64 12
  store i32 %call3.i, ptr %codepointEnd10, align 4
  %6 = load i32, ptr %nextElement, align 4
  %codepoint12 = getelementptr inbounds i8, ptr %this, i64 8
  store i32 %6, ptr %codepoint12, align 8
  %add14 = add nsw i32 %call3.i, 1
  store i32 %add14, ptr %nextElement, align 4
  br label %return

if.end16:                                         ; preds = %if.end
  %nextString = getelementptr inbounds i8, ptr %this, i64 48
  %7 = load i32, ptr %nextString, align 8
  %stringCount = getelementptr inbounds i8, ptr %this, i64 52
  %8 = load i32, ptr %stringCount, align 4
  %cmp17.not = icmp slt i32 %7, %8
  br i1 %cmp17.not, label %if.end19, label %return

if.end19:                                         ; preds = %if.end16
  %codepoint20 = getelementptr inbounds i8, ptr %this, i64 8
  store i32 -1, ptr %codepoint20, align 8
  %set = getelementptr inbounds i8, ptr %this, i64 24
  %9 = load ptr, ptr %set, align 8
  %strings = getelementptr inbounds i8, ptr %9, i64 80
  %10 = load ptr, ptr %strings, align 8
  %inc22 = add nsw i32 %7, 1
  store i32 %inc22, ptr %nextString, align 8
  %call = tail call noundef ptr @_ZNK6icu_757UVector9elementAtEi(ptr noundef nonnull align 8 dereferenceable(40) %10, i32 noundef %7)
  store ptr %call, ptr %string, align 8
  br label %return

return:                                           ; preds = %if.end16, %if.end19, %if.then7, %if.then
  %retval.0 = phi i8 [ 1, %if.then ], [ 1, %if.then7 ], [ 1, %if.end19 ], [ 0, %if.end16 ]
  ret i8 %retval.0
}